target datalayout = "e-m:e-p270:32:32-p271:32:32-p272:64:64-i64:64-i128:128-f80:128-n8:16:32:64-S128"
target triple = "x86_64-pc-linux-gnu"

%struct._ir_strtab = type { ptr, i32, i32, i32, i32, ptr, i32, i32 }
%struct._ir_strtab_bucket = type { i32, i32, ptr, i32, i32 }

; Function Attrs: nounwind uwtable
define internal i32 @ir_str_hash(ptr noundef %0, i64 noundef %1) #0 {
  %3 = alloca ptr, align 8
  %4 = alloca i64, align 8
  %5 = alloca i64, align 8
  %6 = alloca i32, align 4
  store ptr %0, ptr %3, align 8, !tbaa !11
  store i64 %1, ptr %4, align 8, !tbaa !30
  call void @llvm.lifetime.start.p0(i64 8, ptr %5) #10
  call void @llvm.lifetime.start.p0(i64 4, ptr %6) #10
  store i32 5381, ptr %6, align 4, !tbaa !9
  store i64 0, ptr %5, align 8, !tbaa !30
  br label %7

7:                                                ; preds = %22, %2
  %8 = load i64, ptr %5, align 8, !tbaa !30
  %9 = load i64, ptr %4, align 8, !tbaa !30
  %10 = icmp ult i64 %8, %9
  br i1 %10, label %11, label %25

11:                                               ; preds = %7
  %12 = load i32, ptr %6, align 4, !tbaa !9
  %13 = shl i32 %12, 5
  %14 = load i32, ptr %6, align 4, !tbaa !9
  %15 = add i32 %13, %14
  %16 = load ptr, ptr %3, align 8, !tbaa !11
  %17 = load i8, ptr %16, align 1, !tbaa !32
  %18 = sext i8 %17 to i32
  %19 = add i32 %15, %18
  store i32 %19, ptr %6, align 4, !tbaa !9
  %20 = load ptr, ptr %3, align 8, !tbaa !11
  %21 = getelementptr inbounds nuw i8, ptr %20, i32 1
  store ptr %21, ptr %3, align 8, !tbaa !11
  br label %22

22:                                               ; preds = %11
  %23 = load i64, ptr %5, align 8, !tbaa !30
  %24 = add i64 %23, 1
  store i64 %24, ptr %5, align 8, !tbaa !30
  br label %7

25:                                               ; preds = %7
  %26 = load i32, ptr %6, align 4, !tbaa !9
  %27 = or i32 %26, 268435456
  call void @llvm.lifetime.end.p0(i64 4, ptr %6) #10
  call void @llvm.lifetime.end.p0(i64 8, ptr %5) #10
  ret i32 %27
}

; Function Attrs: nounwind uwtable
define hidden i32 @ir_strtab_lookup(ptr noundef %0, ptr noundef %1, i32 noundef %2, i32 noundef %3) #0 {
  %5 = alloca i32, align 4
  %6 = alloca ptr, align 8
  %7 = alloca ptr, align 8
  %8 = alloca i32, align 4
  %9 = alloca i32, align 4
  %10 = alloca i32, align 4
  %11 = alloca ptr, align 8
  %12 = alloca i32, align 4
  %13 = alloca ptr, align 8
  %14 = alloca i32, align 4
  store ptr %0, ptr %6, align 8, !tbaa !4
  store ptr %1, ptr %7, align 8, !tbaa !11
  store i32 %2, ptr %8, align 4, !tbaa !9
  store i32 %3, ptr %9, align 4, !tbaa !9
  call void @llvm.lifetime.start.p0(i64 4, ptr %10) #10
  %15 = load ptr, ptr %7, align 8, !tbaa !11
  %16 = load i32, ptr %8, align 4, !tbaa !9
  %17 = zext i32 %16 to i64
  %18 = call i32 @ir_str_hash(ptr noundef %15, i64 noundef %17)
  store i32 %18, ptr %10, align 4, !tbaa !9
  call void @llvm.lifetime.start.p0(i64 8, ptr %11) #10
  %19 = load ptr, ptr %6, align 8, !tbaa !4
  %20 = getelementptr inbounds nuw %struct._ir_strtab, ptr %19, i32 0, i32 0
  %21 = load ptr, ptr %20, align 8, !tbaa !13
  store ptr %21, ptr %11, align 8, !tbaa !11
  call void @llvm.lifetime.start.p0(i64 4, ptr %12) #10
  %22 = load ptr, ptr %11, align 8, !tbaa !11
  %23 = load i32, ptr %10, align 4, !tbaa !9
  %24 = load ptr, ptr %6, align 8, !tbaa !4
  %25 = getelementptr inbounds nuw %struct._ir_strtab, ptr %24, i32 0, i32 1
  %26 = load i32, ptr %25, align 8, !tbaa !15
  %27 = or i32 %23, %26
  %28 = sext i32 %27 to i64
  %29 = getelementptr inbounds i32, ptr %22, i64 %28
  %30 = load i32, ptr %29, align 4, !tbaa !9
  store i32 %30, ptr %12, align 4, !tbaa !9
  call void @llvm.lifetime.start.p0(i64 8, ptr %13) #10
  br label %31

31:                                               ; preds = %63, %4
  %32 = load i32, ptr %12, align 4, !tbaa !9
  %33 = icmp ne i32 %32, -1
  br i1 %33, label %34, label %67

34:                                               ; preds = %31
  %35 = load ptr, ptr %11, align 8, !tbaa !11
  %36 = load i32, ptr %12, align 4, !tbaa !9
  %37 = zext i32 %36 to i64
  %38 = getelementptr inbounds nuw i8, ptr %35, i64 %37
  store ptr %38, ptr %13, align 8, !tbaa !22
  %39 = load ptr, ptr %13, align 8, !tbaa !22
  %40 = getelementptr inbounds nuw %struct._ir_strtab_bucket, ptr %39, i32 0, i32 0
  %41 = load i32, ptr %40, align 8, !tbaa !24
  %42 = load i32, ptr %10, align 4, !tbaa !9
  %43 = icmp eq i32 %41, %42
  br i1 %43, label %44, label %63

44:                                               ; preds = %34
  %45 = load ptr, ptr %13, align 8, !tbaa !22
  %46 = getelementptr inbounds nuw %struct._ir_strtab_bucket, ptr %45, i32 0, i32 1
  %47 = load i32, ptr %46, align 4, !tbaa !26
  %48 = load i32, ptr %8, align 4, !tbaa !9
  %49 = icmp eq i32 %47, %48
  br i1 %49, label %50, label %63

50:                                               ; preds = %44
  %51 = load ptr, ptr %13, align 8, !tbaa !22
  %52 = getelementptr inbounds nuw %struct._ir_strtab_bucket, ptr %51, i32 0, i32 2
  %53 = load ptr, ptr %52, align 8, !tbaa !27
  %54 = load ptr, ptr %7, align 8, !tbaa !11
  %55 = load i32, ptr %8, align 4, !tbaa !9
  %56 = zext i32 %55 to i64
  %57 = call i32 @memcmp(ptr noundef %53, ptr noundef %54, i64 noundef %56) #12
  %58 = icmp eq i32 %57, 0
  br i1 %58, label %59, label %63

59:                                               ; preds = %50
  %60 = load ptr, ptr %13, align 8, !tbaa !22
  %61 = getelementptr inbounds nuw %struct._ir_strtab_bucket, ptr %60, i32 0, i32 4
  %62 = load i32, ptr %61, align 4, !tbaa !28
  store i32 %62, ptr %5, align 4
  store i32 1, ptr %14, align 4
  br label %196

63:                                               ; preds = %50, %44, %34
  %64 = load ptr, ptr %13, align 8, !tbaa !22
  %65 = getelementptr inbounds nuw %struct._ir_strtab_bucket, ptr %64, i32 0, i32 3
  %66 = load i32, ptr %65, align 8, !tbaa !29
  store i32 %66, ptr %12, align 4, !tbaa !9
  br label %31

67:                                               ; preds = %31
  %68 = load ptr, ptr %6, align 8, !tbaa !4
  %69 = getelementptr inbounds nuw %struct._ir_strtab, ptr %68, i32 0, i32 3
  %70 = load i32, ptr %69, align 8, !tbaa !17
  %71 = load ptr, ptr %6, align 8, !tbaa !4
  %72 = getelementptr inbounds nuw %struct._ir_strtab, ptr %71, i32 0, i32 2
  %73 = load i32, ptr %72, align 4, !tbaa !16
  %74 = icmp uge i32 %70, %73
  %75 = xor i1 %74, true
  %76 = xor i1 %75, true
  %77 = zext i1 %76 to i32
  %78 = sext i32 %77 to i64
  %79 = call i64 @llvm.expect.i64(i64 %78, i64 0)
  %80 = icmp ne i64 %79, 0
  br i1 %80, label %81, label %86

81:                                               ; preds = %67
  %82 = load ptr, ptr %6, align 8, !tbaa !4
  call void @ir_strtab_resize(ptr noundef %82)
  %83 = load ptr, ptr %6, align 8, !tbaa !4
  %84 = getelementptr inbounds nuw %struct._ir_strtab, ptr %83, i32 0, i32 0
  %85 = load ptr, ptr %84, align 8, !tbaa !13
  store ptr %85, ptr %11, align 8, !tbaa !11
  br label %86

86:                                               ; preds = %81, %67
  %87 = load ptr, ptr %6, align 8, !tbaa !4
  %88 = getelementptr inbounds nuw %struct._ir_strtab, ptr %87, i32 0, i32 5
  %89 = load ptr, ptr %88, align 8, !tbaa !19
  %90 = icmp ne ptr %89, null
  br i1 %90, label %91, label %148

91:                                               ; preds = %86
  %92 = load ptr, ptr %6, align 8, !tbaa !4
  %93 = getelementptr inbounds nuw %struct._ir_strtab, ptr %92, i32 0, i32 6
  %94 = load i32, ptr %93, align 8, !tbaa !20
  %95 = load ptr, ptr %6, align 8, !tbaa !4
  %96 = getelementptr inbounds nuw %struct._ir_strtab, ptr %95, i32 0, i32 7
  %97 = load i32, ptr %96, align 4, !tbaa !21
  %98 = sub i32 %94, %97
  %99 = load i32, ptr %8, align 4, !tbaa !9
  %100 = add i32 %99, 1
  %101 = icmp ult i32 %98, %100
  %102 = xor i1 %101, true
  %103 = xor i1 %102, true
  %104 = zext i1 %103 to i32
  %105 = sext i32 %104 to i64
  %106 = call i64 @llvm.expect.i64(i64 %105, i64 0)
  %107 = icmp ne i64 %106, 0
  br i1 %107, label %108, label %112

108:                                              ; preds = %91
  %109 = load ptr, ptr %6, align 8, !tbaa !4
  %110 = load i32, ptr %8, align 4, !tbaa !9
  %111 = add i32 %110, 1
  call void @ir_strtab_grow_buf(ptr noundef %109, i32 noundef %111)
  br label %112

112:                                              ; preds = %108, %91
  %113 = load ptr, ptr %6, align 8, !tbaa !4
  %114 = getelementptr inbounds nuw %struct._ir_strtab, ptr %113, i32 0, i32 5
  %115 = load ptr, ptr %114, align 8, !tbaa !19
  %116 = load ptr, ptr %6, align 8, !tbaa !4
  %117 = getelementptr inbounds nuw %struct._ir_strtab, ptr %116, i32 0, i32 7
  %118 = load i32, ptr %117, align 4, !tbaa !21
  %119 = zext i32 %118 to i64
  %120 = getelementptr inbounds nuw i8, ptr %115, i64 %119
  %121 = load ptr, ptr %7, align 8, !tbaa !11
  %122 = load i32, ptr %8, align 4, !tbaa !9
  %123 = zext i32 %122 to i64
  call void @llvm.memcpy.p0.p0.i64(ptr align 1 %120, ptr align 1 %121, i64 %123, i1 false)
  %124 = load ptr, ptr %6, align 8, !tbaa !4
  %125 = getelementptr inbounds nuw %struct._ir_strtab, ptr %124, i32 0, i32 5
  %126 = load ptr, ptr %125, align 8, !tbaa !19
  %127 = load ptr, ptr %6, align 8, !tbaa !4
  %128 = getelementptr inbounds nuw %struct._ir_strtab, ptr %127, i32 0, i32 7
  %129 = load i32, ptr %128, align 4, !tbaa !21
  %130 = load i32, ptr %8, align 4, !tbaa !9
  %131 = add i32 %129, %130
  %132 = zext i32 %131 to i64
  %133 = getelementptr inbounds nuw i8, ptr %126, i64 %132
  store i8 0, ptr %133, align 1, !tbaa !32
  %134 = load ptr, ptr %6, align 8, !tbaa !4
  %135 = getelementptr inbounds nuw %struct._ir_strtab, ptr %134, i32 0, i32 5
  %136 = load ptr, ptr %135, align 8, !tbaa !19
  %137 = load ptr, ptr %6, align 8, !tbaa !4
  %138 = getelementptr inbounds nuw %struct._ir_strtab, ptr %137, i32 0, i32 7
  %139 = load i32, ptr %138, align 4, !tbaa !21
  %140 = zext i32 %139 to i64
  %141 = getelementptr inbounds nuw i8, ptr %136, i64 %140
  store ptr %141, ptr %7, align 8, !tbaa !11
  %142 = load i32, ptr %8, align 4, !tbaa !9
  %143 = add i32 %142, 1
  %144 = load ptr, ptr %6, align 8, !tbaa !4
  %145 = getelementptr inbounds nuw %struct._ir_strtab, ptr %144, i32 0, i32 7
  %146 = load i32, ptr %145, align 4, !tbaa !21
  %147 = add i32 %146, %143
  store i32 %147, ptr %145, align 4, !tbaa !21
  br label %148

148:                                              ; preds = %112, %86
  %149 = load ptr, ptr %6, align 8, !tbaa !4
  %150 = getelementptr inbounds nuw %struct._ir_strtab, ptr %149, i32 0, i32 4
  %151 = load i32, ptr %150, align 4, !tbaa !18
  store i32 %151, ptr %12, align 4, !tbaa !9
  %152 = load ptr, ptr %6, align 8, !tbaa !4
  %153 = getelementptr inbounds nuw %struct._ir_strtab, ptr %152, i32 0, i32 4
  %154 = load i32, ptr %153, align 4, !tbaa !18
  %155 = zext i32 %154 to i64
  %156 = add i64 %155, 24
  %157 = trunc i64 %156 to i32
  store i32 %157, ptr %153, align 4, !tbaa !18
  %158 = load ptr, ptr %6, align 8, !tbaa !4
  %159 = getelementptr inbounds nuw %struct._ir_strtab, ptr %158, i32 0, i32 3
  %160 = load i32, ptr %159, align 8, !tbaa !17
  %161 = add i32 %160, 1
  store i32 %161, ptr %159, align 8, !tbaa !17
  %162 = load ptr, ptr %11, align 8, !tbaa !11
  %163 = load i32, ptr %12, align 4, !tbaa !9
  %164 = zext i32 %163 to i64
  %165 = getelementptr inbounds nuw i8, ptr %162, i64 %164
  store ptr %165, ptr %13, align 8, !tbaa !22
  %166 = load i32, ptr %10, align 4, !tbaa !9
  %167 = load ptr, ptr %13, align 8, !tbaa !22
  %168 = getelementptr inbounds nuw %struct._ir_strtab_bucket, ptr %167, i32 0, i32 0
  store i32 %166, ptr %168, align 8, !tbaa !24
  %169 = load i32, ptr %8, align 4, !tbaa !9
  %170 = load ptr, ptr %13, align 8, !tbaa !22
  %171 = getelementptr inbounds nuw %struct._ir_strtab_bucket, ptr %170, i32 0, i32 1
  store i32 %169, ptr %171, align 4, !tbaa !26
  %172 = load ptr, ptr %7, align 8, !tbaa !11
  %173 = load ptr, ptr %13, align 8, !tbaa !22
  %174 = getelementptr inbounds nuw %struct._ir_strtab_bucket, ptr %173, i32 0, i32 2
  store ptr %172, ptr %174, align 8, !tbaa !27
  %175 = load ptr, ptr %6, align 8, !tbaa !4
  %176 = getelementptr inbounds nuw %struct._ir_strtab, ptr %175, i32 0, i32 1
  %177 = load i32, ptr %176, align 8, !tbaa !15
  %178 = load i32, ptr %10, align 4, !tbaa !9
  %179 = or i32 %178, %177
  store i32 %179, ptr %10, align 4, !tbaa !9
  %180 = load ptr, ptr %11, align 8, !tbaa !11
  %181 = load i32, ptr %10, align 4, !tbaa !9
  %182 = sext i32 %181 to i64
  %183 = getelementptr inbounds i32, ptr %180, i64 %182
  %184 = load i32, ptr %183, align 4, !tbaa !9
  %185 = load ptr, ptr %13, align 8, !tbaa !22
  %186 = getelementptr inbounds nuw %struct._ir_strtab_bucket, ptr %185, i32 0, i32 3
  store i32 %184, ptr %186, align 8, !tbaa !29
  %187 = load i32, ptr %12, align 4, !tbaa !9
  %188 = load ptr, ptr %11, align 8, !tbaa !11
  %189 = load i32, ptr %10, align 4, !tbaa !9
  %190 = sext i32 %189 to i64
  %191 = getelementptr inbounds i32, ptr %188, i64 %190
  store i32 %187, ptr %191, align 4, !tbaa !9
  %192 = load i32, ptr %9, align 4, !tbaa !9
  %193 = load ptr, ptr %13, align 8, !tbaa !22
  %194 = getelementptr inbounds nuw %struct._ir_strtab_bucket, ptr %193, i32 0, i32 4
  store i32 %192, ptr %194, align 4, !tbaa !28
  %195 = load i32, ptr %9, align 4, !tbaa !9
  store i32 %195, ptr %5, align 4
  store i32 1, ptr %14, align 4
  br label %196

196:                                              ; preds = %148, %59
  call void @llvm.lifetime.end.p0(i64 8, ptr %13) #10
  call void @llvm.lifetime.end.p0(i64 4, ptr %12) #10
  call void @llvm.lifetime.end.p0(i64 8, ptr %11) #10
  call void @llvm.lifetime.end.p0(i64 4, ptr %10) #10
  %197 = load i32, ptr %5, align 4
  ret i32 %197
}