; Function Attrs: nounwind uwtable
define hidden i32 @ir_strtab_lookup(ptr noundef captures(none) %0, ptr noundef %1, i32 noundef %2, i32 noundef %3) local_unnamed_addr #0 {
  %5 = zext i32 %2 to i64
  %.not.i = icmp eq i32 %2, 0
  br i1 %.not.i, label %ir_str_hash.exit, label %.lr.ph.i

.lr.ph.i:                                         ; preds = %4, %.lr.ph.i
  %.011.i = phi i32 [ %9, %.lr.ph.i ], [ 5381, %4 ]
  %.0710.i = phi i64 [ %11, %.lr.ph.i ], [ 0, %4 ]
  %.089.i = phi ptr [ %10, %.lr.ph.i ], [ %1, %4 ]
  %6 = mul i32 %.011.i, 33
  %7 = load i8, ptr %.089.i, align 1, !tbaa !18
  %8 = sext i8 %7 to i32
  %9 = add i32 %6, %8
  %10 = getelementptr inbounds nuw i8, ptr %.089.i, i64 1
  %11 = add nuw nsw i64 %.0710.i, 1
  %exitcond.not.i = icmp eq i64 %11, %5
  br i1 %exitcond.not.i, label %._crit_edge.loopexit.i, label %.lr.ph.i

._crit_edge.loopexit.i:                           ; preds = %.lr.ph.i
  %12 = or i32 %9, 268435456
  br label %ir_str_hash.exit

ir_str_hash.exit:                                 ; preds = %4, %._crit_edge.loopexit.i
  %.0.lcssa.i = phi i32 [ 268440837, %4 ], [ %12, %._crit_edge.loopexit.i ]
  %13 = load ptr, ptr %0, align 8, !tbaa !4
  %14 = getelementptr inbounds nuw i8, ptr %0, i64 8
  %15 = load i32, ptr %14, align 8, !tbaa !11
  %16 = or i32 %15, %.0.lcssa.i
  %17 = sext i32 %16 to i64
  %18 = getelementptr inbounds i32, ptr %13, i64 %17
  %.068 = load i32, ptr %18, align 4, !tbaa !19
  %.not69 = icmp eq i32 %.068, -1
  br i1 %.not69, label %._crit_edge, label %.lr.ph

.lr.ph:                                           ; preds = %ir_str_hash.exit, %34
  %.070 = phi i32 [ %.0, %34 ], [ %.068, %ir_str_hash.exit ]
  %19 = zext i32 %.070 to i64
  %20 = getelementptr inbounds nuw i8, ptr %13, i64 %19
  %21 = load i32, ptr %20, align 8, !tbaa !20
  %22 = icmp eq i32 %21, %.0.lcssa.i
  br i1 %22, label %23, label %34

23:                                               ; preds = %.lr.ph
  %24 = getelementptr inbounds nuw i8, ptr %20, i64 4
  %25 = load i32, ptr %24, align 4, !tbaa !22
  %26 = icmp eq i32 %25, %2
  br i1 %26, label %27, label %34

27:                                               ; preds = %23
  %28 = getelementptr inbounds nuw i8, ptr %20, i64 8
  %29 = load ptr, ptr %28, align 8, !tbaa !23
  %bcmp = tail call i32 @bcmp(ptr %29, ptr %1, i64 %5)
  %30 = icmp eq i32 %bcmp, 0
  br i1 %30, label %31, label %34

31:                                               ; preds = %27
  %32 = getelementptr inbounds nuw i8, ptr %20, i64 20
  %33 = load i32, ptr %32, align 4, !tbaa !24
  br label %86

34:                                               ; preds = %27, %23, %.lr.ph
  %35 = getelementptr inbounds nuw i8, ptr %20, i64 16
  %.0 = load i32, ptr %35, align 4, !tbaa !19
  %.not = icmp eq i32 %.0, -1
  br i1 %.not, label %._crit_edge, label %.lr.ph

._crit_edge:                                      ; preds = %34, %ir_str_hash.exit
  %36 = getelementptr inbounds nuw i8, ptr %0, i64 16
  %37 = load i32, ptr %36, align 8, !tbaa !13
  %38 = getelementptr inbounds nuw i8, ptr %0, i64 12
  %39 = load i32, ptr %38, align 4, !tbaa !12
  %.not65 = icmp ult i32 %37, %39
  br i1 %.not65, label %42, label %40, !prof !25

40:                                               ; preds = %._crit_edge
  tail call fastcc void @ir_strtab_resize(ptr noundef nonnull %0)
  %41 = load ptr, ptr %0, align 8, !tbaa !4
  br label %42

42:                                               ; preds = %40, %._crit_edge
  %.061 = phi ptr [ %41, %40 ], [ %13, %._crit_edge ]
  %43 = getelementptr inbounds nuw i8, ptr %0, i64 24
  %44 = load ptr, ptr %43, align 8, !tbaa !15
  %.not66 = icmp eq ptr %44, null
  br i1 %.not66, label %69, label %45

45:                                               ; preds = %42
  %46 = getelementptr inbounds nuw i8, ptr %0, i64 32
  %47 = load i32, ptr %46, align 8, !tbaa !16
  %48 = getelementptr inbounds nuw i8, ptr %0, i64 36
  %49 = load i32, ptr %48, align 4, !tbaa !17
  %50 = sub i32 %47, %49
  %51 = add i32 %2, 1
  %52 = icmp ult i32 %50, %51
  br i1 %52, label %53, label %54, !prof !26

53:                                               ; preds = %45
  tail call fastcc void @ir_strtab_grow_buf(ptr noundef nonnull %0, i32 noundef %51)
  %.pre = load ptr, ptr %43, align 8, !tbaa !15
  %.pre73 = load i32, ptr %48, align 4, !tbaa !17
  br label %54

54:                                               ; preds = %53, %45
  %55 = phi i32 [ %.pre73, %53 ], [ %49, %45 ]
  %56 = phi ptr [ %.pre, %53 ], [ %44, %45 ]
  %57 = zext i32 %55 to i64
  %58 = getelementptr inbounds nuw i8, ptr %56, i64 %57
  tail call void @llvm.memcpy.p0.p0.i64(ptr align 1 %58, ptr align 1 %1, i64 %5, i1 false)
  %59 = load ptr, ptr %43, align 8, !tbaa !15
  %60 = load i32, ptr %48, align 4, !tbaa !17
  %61 = add i32 %60, %2
  %62 = zext i32 %61 to i64
  %63 = getelementptr inbounds nuw i8, ptr %59, i64 %62
  store i8 0, ptr %63, align 1, !tbaa !18
  %64 = load ptr, ptr %43, align 8, !tbaa !15
  %65 = load i32, ptr %48, align 4, !tbaa !17
  %66 = zext i32 %65 to i64
  %67 = getelementptr inbounds nuw i8, ptr %64, i64 %66
  %68 = add i32 %65, %51
  store i32 %68, ptr %48, align 4, !tbaa !17
  br label %69

69:                                               ; preds = %54, %42
  %.063 = phi ptr [ %67, %54 ], [ %1, %42 ]
  %70 = getelementptr inbounds nuw i8, ptr %0, i64 20
  %71 = load i32, ptr %70, align 4, !tbaa !14
  %72 = zext i32 %71 to i64
  %73 = add i32 %71, 24
  store i32 %73, ptr %70, align 4, !tbaa !14
  %74 = load i32, ptr %36, align 8, !tbaa !13
  %75 = add i32 %74, 1
  store i32 %75, ptr %36, align 8, !tbaa !13
  %76 = getelementptr inbounds nuw i8, ptr %.061, i64 %72
  store i32 %.0.lcssa.i, ptr %76, align 8, !tbaa !20
  %77 = getelementptr inbounds nuw i8, ptr %76, i64 4
  store i32 %2, ptr %77, align 4, !tbaa !22
  %78 = getelementptr inbounds nuw i8, ptr %76, i64 8
  store ptr %.063, ptr %78, align 8, !tbaa !23
  %79 = load i32, ptr %14, align 8, !tbaa !11
  %80 = or i32 %79, %.0.lcssa.i
  %81 = sext i32 %80 to i64
  %82 = getelementptr inbounds i32, ptr %.061, i64 %81
  %83 = load i32, ptr %82, align 4, !tbaa !19
  %84 = getelementptr inbounds nuw i8, ptr %76, i64 16
  store i32 %83, ptr %84, align 8, !tbaa !27
  store i32 %71, ptr %82, align 4, !tbaa !19
  %85 = getelementptr inbounds nuw i8, ptr %76, i64 20
  store i32 %3, ptr %85, align 4, !tbaa !24
  br label %86

86:                                               ; preds = %69, %31
  %.062 = phi i32 [ %33, %31 ], [ %3, %69 ]
  ret i32 %.062
}